target datalayout = "e-m:e-p270:32:32-p271:32:32-p272:64:64-i64:64-i128:128-f80:128-n8:16:32:64-S128"
target triple = "x86_64-unknown-linux-gnu"

%class.checked_int64 = type { i64 }

; Function Attrs: mustprogress nounwind uwtable
define linkonce_odr hidden noundef zeroext i1 @_ZltRK13checked_int64ILb1EES2_(ptr noundef nonnull align 8 dereferenceable(8) %a, ptr noundef nonnull align 8 dereferenceable(8) %b) #5 comdat {
entry:
  %a.addr = alloca ptr, align 8
  %b.addr = alloca ptr, align 8
  store ptr %a, ptr %a.addr, align 8
  store ptr %b, ptr %b.addr, align 8
  %0 = load ptr, ptr %a.addr, align 8
  %m_value = getelementptr inbounds %class.checked_int64, ptr %0, i32 0, i32 0
  %1 = load i64, ptr %m_value, align 8
  %2 = load ptr, ptr %b.addr, align 8
  %m_value1 = getelementptr inbounds %class.checked_int64, ptr %2, i32 0, i32 0
  %3 = load i64, ptr %m_value1, align 8
  %cmp = icmp slt i64 %1, %3
  ret i1 %cmp
}

; Function Attrs: mustprogress nounwind uwtable
define linkonce_odr hidden noundef zeroext i1 @_ZgtILb1EEbRK13checked_int64IXT_EES3_(ptr noundef nonnull align 8 dereferenceable(8) %i1, ptr noundef nonnull align 8 dereferenceable(8) %i2) #5 comdat {
entry:
  %i1.addr = alloca ptr, align 8
  %i2.addr = alloca ptr, align 8
  store ptr %i1, ptr %i1.addr, align 8
  store ptr %i2, ptr %i2.addr, align 8
  %0 = load ptr, ptr %i2.addr, align 8
  %1 = load ptr, ptr %i1.addr, align 8
  %call = call noundef zeroext i1 @_ZltRK13checked_int64ILb1EES2_(ptr noundef nonnull align 8 dereferenceable(8) %0, ptr noundef nonnull align 8 dereferenceable(8) %1)
  ret i1 %call
}

; Function Attrs: mustprogress nounwind uwtable
define linkonce_odr hidden noundef zeroext i1 @_ZgeILb1EEbRK13checked_int64IXT_EES3_(ptr noundef nonnull align 8 dereferenceable(8) %i1, ptr noundef nonnull align 8 dereferenceable(8) %i2) #5 comdat {
entry:
  %i1.addr = alloca ptr, align 8
  %i2.addr = alloca ptr, align 8
  store ptr %i1, ptr %i1.addr, align 8
  store ptr %i2, ptr %i2.addr, align 8
  %0 = load ptr, ptr %i1.addr, align 8
  %1 = load ptr, ptr %i2.addr, align 8
  %call = call noundef zeroext i1 @_ZltRK13checked_int64ILb1EES2_(ptr noundef nonnull align 8 dereferenceable(8) %0, ptr noundef nonnull align 8 dereferenceable(8) %1)
  %lnot = xor i1 %call, true
  ret i1 %lnot
}

; Function Attrs: mustprogress uwtable
define linkonce_odr hidden noundef zeroext i1 @_ZleILb1EEbRK13checked_int64IXT_EES3_(ptr noundef nonnull align 8 dereferenceable(8) %i1, ptr noundef nonnull align 8 dereferenceable(8) %i2) #4 comdat {
entry:
  %i1.addr = alloca ptr, align 8
  %i2.addr = alloca ptr, align 8
  store ptr %i1, ptr %i1.addr, align 8
  store ptr %i2, ptr %i2.addr, align 8
  %0 = load ptr, ptr %i1.addr, align 8
  %1 = load ptr, ptr %i2.addr, align 8
  %call = call noundef zeroext i1 @_ZgtILb1EEbRK13checked_int64IXT_EES3_(ptr noundef nonnull align 8 dereferenceable(8) %0, ptr noundef nonnull align 8 dereferenceable(8) %1)
  %lnot = xor i1 %call, true
  ret i1 %lnot
}

; Function Attrs: mustprogress nounwind uwtable
define linkonce_odr hidden noundef zeroext i1 @_ZNK13checked_int64ILb1EE6is_negEv(ptr noundef nonnull align 8 dereferenceable(8) %this) #5 comdat align 2 {
entry:
  %this.addr = alloca ptr, align 8
  store ptr %this, ptr %this.addr, align 8
  %this1 = load ptr, ptr %this.addr, align 8
  %m_value = getelementptr inbounds %class.checked_int64, ptr %this1, i32 0, i32 0
  %0 = load i64, ptr %m_value, align 8
  %cmp = icmp slt i64 %0, 0
  ret i1 %cmp
}

; Function Attrs: mustprogress uwtable
define hidden noundef zeroext i1 @_ZNK13hilbert_basis10is_abs_geqERK13checked_int64ILb1EES3_(ptr noundef nonnull align 8 dereferenceable(127) %this, ptr noundef nonnull align 8 dereferenceable(8) %v, ptr noundef nonnull align 8 dereferenceable(8) %w) #4 align 2 {
entry:
  %retval = alloca i1, align 1
  %this.addr = alloca ptr, align 8
  %v.addr = alloca ptr, align 8
  %w.addr = alloca ptr, align 8
  store ptr %this, ptr %this.addr, align 8
  store ptr %v, ptr %v.addr, align 8
  store ptr %w, ptr %w.addr, align 8
  %0 = load ptr, ptr %w.addr, align 8
  %call = call noundef zeroext i1 @_ZNK13checked_int64ILb1EE6is_negEv(ptr noundef nonnull align 8 dereferenceable(8) %0)
  br i1 %call, label %if.then, label %if.else

if.then:                                          ; preds = %entry
  %1 = load ptr, ptr %v.addr, align 8
  %2 = load ptr, ptr %w.addr, align 8
  %call2 = call noundef zeroext i1 @_ZleILb1EEbRK13checked_int64IXT_EES3_(ptr noundef nonnull align 8 dereferenceable(8) %1, ptr noundef nonnull align 8 dereferenceable(8) %2)
  store i1 %call2, ptr %retval, align 1
  br label %return

if.else:                                          ; preds = %entry
  %3 = load ptr, ptr %v.addr, align 8
  %4 = load ptr, ptr %w.addr, align 8
  %call3 = call noundef zeroext i1 @_ZgeILb1EEbRK13checked_int64IXT_EES3_(ptr noundef nonnull align 8 dereferenceable(8) %3, ptr noundef nonnull align 8 dereferenceable(8) %4)
  store i1 %call3, ptr %retval, align 1
  br label %return

return:                                           ; preds = %if.else, %if.then
  %5 = load i1, ptr %retval, align 1
  ret i1 %5
}