; Function Attrs: mustprogress nofree norecurse nosync nounwind willreturn memory(argmem: read) uwtable
define hidden noundef zeroext i1 @_ZNK13hilbert_basis10is_abs_geqERK13checked_int64ILb1EES3_(ptr nocapture noundef nonnull readnone align 8 dereferenceable(127) %this, ptr nocapture noundef nonnull readonly align 8 dereferenceable(8) %v, ptr nocapture noundef nonnull readonly align 8 dereferenceable(8) %w) local_unnamed_addr #10 align 2 {
entry:
  %0 = load i64, ptr %w, align 8
  %cmp.i = icmp slt i64 %0, 0
  %1 = load i64, ptr %v, align 8
  %cmp.i.i.i = icmp sge i64 %0, %1
  %cmp.i.i = icmp sge i64 %1, %0
  %retval.0 = select i1 %cmp.i, i1 %cmp.i.i.i, i1 %cmp.i.i
  ret i1 %retval.0
}